target datalayout = "e-m:e-p270:32:32-p271:32:32-p272:64:64-i64:64-i128:128-f80:128-n8:16:32:64-S128"
target triple = "x86_64-pc-linux-gnu"

%struct.TCGContext = type { ptr, ptr, ptr, ptr, ptr, i32, i32, i32, i32, i32, i32, i32, i8, i8, i8, i32, i32, i64, i64, i64, ptr, ptr, ptr, ptr, ptr, i64, ptr, ptr, ptr, ptr, %struct.anon, ptr, ptr, ptr, ptr, ptr, [6 x ptr], [6 x %struct.TCGTempSet], [512 x %struct.TCGTemp], %union.anon, %union.anon, %struct.anon.0, ptr, [32 x ptr], [512 x i16], ptr, [1 x %struct.__jmp_buf_tag] }
%struct.anon = type { ptr, ptr }
%struct.TCGTempSet = type { [8 x i64] }
%struct.TCGTemp = type { i64, i64, ptr, i64, ptr, i64, ptr }
%union.anon = type { %struct.QTailQLink }
%struct.QTailQLink = type { ptr, ptr }
%struct.anon.0 = type { ptr, ptr }
%struct.__jmp_buf_tag = type { [8 x i64], i32, %struct.__sigset_t }
%struct.__sigset_t = type { [16 x i64] }

@.str.4 = private unnamed_addr constant [18 x i8] c"../qemu/tcg/tcg.c\00", align 1
@indirect_reg_alloc_order = internal global [31 x i32] zeroinitializer, align 16
@__func__.tcg_reg_alloc = private unnamed_addr constant [14 x i8] c"tcg_reg_alloc\00", align 1

; Function Attrs: inlinehint nounwind sspstrong uwtable
define internal i32 @ctz32(i32 noundef %0) #3 {
  %2 = alloca i32, align 4
  store i32 %0, ptr %2, align 4
  %3 = load i32, ptr %2, align 4
  %4 = icmp ne i32 %3, 0
  br i1 %4, label %5, label %8

5:                                                ; preds = %1
  %6 = load i32, ptr %2, align 4
  %7 = call i32 @llvm.cttz.i32(i32 %6, i1 true)
  br label %9

8:                                                ; preds = %1
  br label %9

9:                                                ; preds = %8, %5
  %10 = phi i32 [ %7, %5 ], [ 32, %8 ]
  ret i32 %10
}

; Function Attrs: nounwind sspstrong uwtable
define internal void @tcg_reg_free(ptr noundef %0, i32 noundef %1, i32 noundef %2) #0 {
  %4 = alloca ptr, align 8
  %5 = alloca i32, align 4
  %6 = alloca i32, align 4
  %7 = alloca ptr, align 8
  store ptr %0, ptr %4, align 8
  store i32 %1, ptr %5, align 4
  store i32 %2, ptr %6, align 4
  call void @llvm.lifetime.start.p0(i64 8, ptr %7) #19
  %8 = load ptr, ptr %4, align 8
  %9 = getelementptr inbounds nuw %struct.TCGContext, ptr %8, i32 0, i32 43
  %10 = load i32, ptr %5, align 4
  %11 = zext i32 %10 to i64
  %12 = getelementptr inbounds nuw [32 x ptr], ptr %9, i64 0, i64 %11
  %13 = load ptr, ptr %12, align 8
  store ptr %13, ptr %7, align 8
  %14 = load ptr, ptr %7, align 8
  %15 = icmp ne ptr %14, null
  br i1 %15, label %16, label %20

16:                                               ; preds = %3
  %17 = load ptr, ptr %4, align 8
  %18 = load ptr, ptr %7, align 8
  %19 = load i32, ptr %6, align 4
  call void @temp_sync(ptr noundef %17, ptr noundef %18, i32 noundef %19, i32 noundef 0, i32 noundef -1)
  br label %20

20:                                               ; preds = %16, %3
  call void @llvm.lifetime.end.p0(i64 8, ptr %7) #19
  ret void
}

; Function Attrs: inlinehint nounwind sspstrong uwtable
define internal i32 @tcg_regset_first(i32 noundef %0) #3 {
  %2 = alloca i32, align 4
  store i32 %0, ptr %2, align 4
  %3 = load i32, ptr %2, align 4
  %4 = call i32 @ctz32(i32 noundef %3)
  ret i32 %4
}

; Function Attrs: inlinehint nounwind sspstrong uwtable
define internal zeroext i1 @tcg_regset_single(i32 noundef %0) #3 {
  %2 = alloca i32, align 4
  store i32 %0, ptr %2, align 4
  %3 = load i32, ptr %2, align 4
  %4 = load i32, ptr %2, align 4
  %5 = sub i32 %4, 1
  %6 = and i32 %3, %5
  %7 = icmp eq i32 %6, 0
  ret i1 %7
}

; Function Attrs: nounwind sspstrong uwtable
define internal i32 @tcg_reg_alloc(ptr noundef %0, i32 noundef %1, i32 noundef %2, i32 noundef %3, i1 noundef zeroext %4) #0 {
  %6 = alloca i32, align 4
  %7 = alloca ptr, align 8
  %8 = alloca i32, align 4
  %9 = alloca i32, align 4
  %10 = alloca i32, align 4
  %11 = alloca i8, align 1
  %12 = alloca i32, align 4
  %13 = alloca i32, align 4
  %14 = alloca i32, align 4
  %15 = alloca i32, align 4
  %16 = alloca [2 x i32], align 4
  %17 = alloca ptr, align 8
  %18 = alloca i32, align 4
  %19 = alloca i32, align 4
  %20 = alloca i32, align 4
  %21 = alloca i32, align 4
  %22 = alloca i32, align 4
  %23 = alloca i32, align 4
  %24 = alloca i32, align 4
  store ptr %0, ptr %7, align 8
  store i32 %1, ptr %8, align 4
  store i32 %2, ptr %9, align 4
  store i32 %3, ptr %10, align 4
  %25 = zext i1 %4 to i8
  store i8 %25, ptr %11, align 1
  call void @llvm.lifetime.start.p0(i64 4, ptr %12) #19
  store i32 0, ptr %12, align 4, !annotation !4
  call void @llvm.lifetime.start.p0(i64 4, ptr %13) #19
  store i32 0, ptr %13, align 4, !annotation !4
  call void @llvm.lifetime.start.p0(i64 4, ptr %14) #19
  store i32 0, ptr %14, align 4, !annotation !4
  call void @llvm.lifetime.start.p0(i64 4, ptr %15) #19
  store i32 31, ptr %15, align 4
  call void @llvm.lifetime.start.p0(i64 8, ptr %16) #19
  call void @llvm.memset.p0.i64(ptr align 4 %16, i8 0, i64 8, i1 false), !annotation !4
  call void @llvm.lifetime.start.p0(i64 8, ptr %17) #19
  store ptr null, ptr %17, align 8, !annotation !4
  %26 = load i32, ptr %8, align 4
  %27 = load i32, ptr %9, align 4
  %28 = xor i32 %27, -1
  %29 = and i32 %26, %28
  %30 = getelementptr inbounds [2 x i32], ptr %16, i64 0, i64 1
  store i32 %29, ptr %30, align 4
  br label %31

31:                                               ; preds = %5
  %32 = getelementptr inbounds [2 x i32], ptr %16, i64 0, i64 1
  %33 = load i32, ptr %32, align 4
  %34 = icmp ne i32 %33, 0
  br i1 %34, label %36, label %35

35:                                               ; preds = %31
  unreachable

36:                                               ; preds = %31
  br label %37

37:                                               ; preds = %36
  br label %38

38:                                               ; preds = %37
  %39 = getelementptr inbounds [2 x i32], ptr %16, i64 0, i64 1
  %40 = load i32, ptr %39, align 4
  %41 = load i32, ptr %10, align 4
  %42 = and i32 %40, %41
  %43 = getelementptr inbounds [2 x i32], ptr %16, i64 0, i64 0
  store i32 %42, ptr %43, align 4
  %44 = getelementptr inbounds [2 x i32], ptr %16, i64 0, i64 0
  %45 = load i32, ptr %44, align 4
  %46 = icmp eq i32 %45, 0
  br i1 %46, label %53, label %47

47:                                               ; preds = %38
  %48 = getelementptr inbounds [2 x i32], ptr %16, i64 0, i64 0
  %49 = load i32, ptr %48, align 4
  %50 = getelementptr inbounds [2 x i32], ptr %16, i64 0, i64 1
  %51 = load i32, ptr %50, align 4
  %52 = icmp eq i32 %49, %51
  br label %53

53:                                               ; preds = %47, %38
  %54 = phi i1 [ true, %38 ], [ %52, %47 ]
  %55 = zext i1 %54 to i32
  store i32 %55, ptr %14, align 4
  %56 = load i8, ptr %11, align 1, !range !5, !noundef !6
  %57 = trunc i8 %56 to i1
  %58 = select i1 %57, ptr @indirect_reg_alloc_order, ptr @tcg_target_reg_alloc_order
  store ptr %58, ptr %17, align 8
  %59 = load i32, ptr %14, align 4
  store i32 %59, ptr %13, align 4
  br label %60

60:                                               ; preds = %124, %53
  %61 = load i32, ptr %13, align 4
  %62 = icmp slt i32 %61, 2
  br i1 %62, label %63, label %127

63:                                               ; preds = %60
  call void @llvm.lifetime.start.p0(i64 4, ptr %18) #19
  %64 = load i32, ptr %13, align 4
  %65 = sext i32 %64 to i64
  %66 = getelementptr inbounds [2 x i32], ptr %16, i64 0, i64 %65
  %67 = load i32, ptr %66, align 4
  store i32 %67, ptr %18, align 4
  %68 = load i32, ptr %18, align 4
  %69 = call zeroext i1 @tcg_regset_single(i32 noundef %68)
  br i1 %69, label %70, label %86

70:                                               ; preds = %63
  call void @llvm.lifetime.start.p0(i64 4, ptr %19) #19
  %71 = load i32, ptr %18, align 4
  %72 = call i32 @tcg_regset_first(i32 noundef %71)
  store i32 %72, ptr %19, align 4
  %73 = load ptr, ptr %7, align 8
  %74 = getelementptr inbounds nuw %struct.TCGContext, ptr %73, i32 0, i32 43
  %75 = load i32, ptr %19, align 4
  %76 = zext i32 %75 to i64
  %77 = getelementptr inbounds nuw [32 x ptr], ptr %74, i64 0, i64 %76
  %78 = load ptr, ptr %77, align 8
  %79 = icmp eq ptr %78, null
  br i1 %79, label %80, label %82

80:                                               ; preds = %70
  %81 = load i32, ptr %19, align 4
  store i32 %81, ptr %6, align 4
  store i32 1, ptr %20, align 4
  br label %83

82:                                               ; preds = %70
  store i32 0, ptr %20, align 4
  br label %83

83:                                               ; preds = %82, %80
  call void @llvm.lifetime.end.p0(i64 4, ptr %19) #19
  %84 = load i32, ptr %20, align 4
  switch i32 %84, label %121 [
    i32 0, label %85
  ]

85:                                               ; preds = %83
  br label %120

86:                                               ; preds = %63
  store i32 0, ptr %12, align 4
  br label %87

87:                                               ; preds = %116, %86
  %88 = load i32, ptr %12, align 4
  %89 = load i32, ptr %15, align 4
  %90 = icmp slt i32 %88, %89
  br i1 %90, label %91, label %119

91:                                               ; preds = %87
  call void @llvm.lifetime.start.p0(i64 4, ptr %21) #19
  %92 = load ptr, ptr %17, align 8
  %93 = load i32, ptr %12, align 4
  %94 = sext i32 %93 to i64
  %95 = getelementptr inbounds i32, ptr %92, i64 %94
  %96 = load i32, ptr %95, align 4
  store i32 %96, ptr %21, align 4
  %97 = load ptr, ptr %7, align 8
  %98 = getelementptr inbounds nuw %struct.TCGContext, ptr %97, i32 0, i32 43
  %99 = load i32, ptr %21, align 4
  %100 = zext i32 %99 to i64
  %101 = getelementptr inbounds nuw [32 x ptr], ptr %98, i64 0, i64 %100
  %102 = load ptr, ptr %101, align 8
  %103 = icmp eq ptr %102, null
  br i1 %103, label %104, label %112

104:                                              ; preds = %91
  %105 = load i32, ptr %18, align 4
  %106 = load i32, ptr %21, align 4
  %107 = lshr i32 %105, %106
  %108 = and i32 %107, 1
  %109 = icmp ne i32 %108, 0
  br i1 %109, label %110, label %112

110:                                              ; preds = %104
  %111 = load i32, ptr %21, align 4
  store i32 %111, ptr %6, align 4
  store i32 1, ptr %20, align 4
  br label %113

112:                                              ; preds = %104, %91
  store i32 0, ptr %20, align 4
  br label %113

113:                                              ; preds = %112, %110
  call void @llvm.lifetime.end.p0(i64 4, ptr %21) #19
  %114 = load i32, ptr %20, align 4
  switch i32 %114, label %121 [
    i32 0, label %115
  ]

115:                                              ; preds = %113
  br label %116

116:                                              ; preds = %115
  %117 = load i32, ptr %12, align 4
  %118 = add i32 %117, 1
  store i32 %118, ptr %12, align 4
  br label %87, !llvm.loop !103

119:                                              ; preds = %87
  br label %120

120:                                              ; preds = %119, %85
  store i32 0, ptr %20, align 4
  br label %121

121:                                              ; preds = %120, %113, %83
  call void @llvm.lifetime.end.p0(i64 4, ptr %18) #19
  %122 = load i32, ptr %20, align 4
  switch i32 %122, label %186 [
    i32 0, label %123
  ]

123:                                              ; preds = %121
  br label %124

124:                                              ; preds = %123
  %125 = load i32, ptr %13, align 4
  %126 = add i32 %125, 1
  store i32 %126, ptr %13, align 4
  br label %60, !llvm.loop !104

127:                                              ; preds = %60
  %128 = load i32, ptr %14, align 4
  store i32 %128, ptr %13, align 4
  br label %129

129:                                              ; preds = %179, %127
  %130 = load i32, ptr %13, align 4
  %131 = icmp slt i32 %130, 2
  br i1 %131, label %132, label %182

132:                                              ; preds = %129
  call void @llvm.lifetime.start.p0(i64 4, ptr %22) #19
  %133 = load i32, ptr %13, align 4
  %134 = sext i32 %133 to i64
  %135 = getelementptr inbounds [2 x i32], ptr %16, i64 0, i64 %134
  %136 = load i32, ptr %135, align 4
  store i32 %136, ptr %22, align 4
  %137 = load i32, ptr %22, align 4
  %138 = call zeroext i1 @tcg_regset_single(i32 noundef %137)
  br i1 %138, label %139, label %146

139:                                              ; preds = %132
  call void @llvm.lifetime.start.p0(i64 4, ptr %23) #19
  %140 = load i32, ptr %22, align 4
  %141 = call i32 @tcg_regset_first(i32 noundef %140)
  store i32 %141, ptr %23, align 4
  %142 = load ptr, ptr %7, align 8
  %143 = load i32, ptr %23, align 4
  %144 = load i32, ptr %9, align 4
  call void @tcg_reg_free(ptr noundef %142, i32 noundef %143, i32 noundef %144)
  %145 = load i32, ptr %23, align 4
  store i32 %145, ptr %6, align 4
  store i32 1, ptr %20, align 4
  call void @llvm.lifetime.end.p0(i64 4, ptr %23) #19
  br label %176

146:                                              ; preds = %132
  store i32 0, ptr %12, align 4
  br label %147

147:                                              ; preds = %171, %146
  %148 = load i32, ptr %12, align 4
  %149 = load i32, ptr %15, align 4
  %150 = icmp slt i32 %148, %149
  br i1 %150, label %151, label %174

151:                                              ; preds = %147
  call void @llvm.lifetime.start.p0(i64 4, ptr %24) #19
  %152 = load ptr, ptr %17, align 8
  %153 = load i32, ptr %12, align 4
  %154 = sext i32 %153 to i64
  %155 = getelementptr inbounds i32, ptr %152, i64 %154
  %156 = load i32, ptr %155, align 4
  store i32 %156, ptr %24, align 4
  %157 = load i32, ptr %22, align 4
  %158 = load i32, ptr %24, align 4
  %159 = lshr i32 %157, %158
  %160 = and i32 %159, 1
  %161 = icmp ne i32 %160, 0
  br i1 %161, label %162, label %167

162:                                              ; preds = %151
  %163 = load ptr, ptr %7, align 8
  %164 = load i32, ptr %24, align 4
  %165 = load i32, ptr %9, align 4
  call void @tcg_reg_free(ptr noundef %163, i32 noundef %164, i32 noundef %165)
  %166 = load i32, ptr %24, align 4
  store i32 %166, ptr %6, align 4
  store i32 1, ptr %20, align 4
  br label %168

167:                                              ; preds = %151
  store i32 0, ptr %20, align 4
  br label %168

168:                                              ; preds = %167, %162
  call void @llvm.lifetime.end.p0(i64 4, ptr %24) #19
  %169 = load i32, ptr %20, align 4
  switch i32 %169, label %176 [
    i32 0, label %170
  ]

170:                                              ; preds = %168
  br label %171

171:                                              ; preds = %170
  %172 = load i32, ptr %12, align 4
  %173 = add i32 %172, 1
  store i32 %173, ptr %12, align 4
  br label %147, !llvm.loop !105

174:                                              ; preds = %147
  br label %175

175:                                              ; preds = %174
  store i32 0, ptr %20, align 4
  br label %176

176:                                              ; preds = %175, %168, %139
  call void @llvm.lifetime.end.p0(i64 4, ptr %22) #19
  %177 = load i32, ptr %20, align 4
  switch i32 %177, label %186 [
    i32 0, label %178
  ]

178:                                              ; preds = %176
  br label %179

179:                                              ; preds = %178
  %180 = load i32, ptr %13, align 4
  %181 = add i32 %180, 1
  store i32 %181, ptr %13, align 4
  br label %129, !llvm.loop !106

182:                                              ; preds = %129
  br label %183

183:                                              ; preds = %182
  call void @g_assertion_message_expr(ptr noundef null, ptr noundef @.str.4, i32 noundef 4604, ptr noundef @__func__.tcg_reg_alloc, ptr noundef null) #20
  unreachable

184:                                              ; No predecessors!
  br label %185

185:                                              ; preds = %184
  store i32 0, ptr %20, align 4
  br label %186

186:                                              ; preds = %185, %176, %121
  call void @llvm.lifetime.end.p0(i64 8, ptr %17) #19
  call void @llvm.lifetime.end.p0(i64 8, ptr %16) #19
  call void @llvm.lifetime.end.p0(i64 4, ptr %15) #19
  call void @llvm.lifetime.end.p0(i64 4, ptr %14) #19
  call void @llvm.lifetime.end.p0(i64 4, ptr %13) #19
  call void @llvm.lifetime.end.p0(i64 4, ptr %12) #19
  %187 = load i32, ptr %20, align 4
  switch i32 %187, label %190 [
    i32 0, label %188
    i32 1, label %188
  ]

188:                                              ; preds = %186, %186
  %189 = load i32, ptr %6, align 4
  ret i32 %189

190:                                              ; preds = %186
  unreachable
}