; Function Attrs: nounwind sspstrong uwtable
define internal fastcc i32 @tcg_reg_alloc(ptr noundef %0, i32 noundef %1, i32 noundef %2, i32 noundef %3, i1 noundef zeroext %4) unnamed_addr #0 {
  %6 = alloca [2 x i32], align 4
  call void @llvm.lifetime.start.p0(i64 8, ptr nonnull %6) #30
  %7 = xor i32 %2, -1
  %8 = and i32 %1, %7
  %9 = getelementptr inbounds nuw i8, ptr %6, i64 4
  store i32 %8, ptr %9, align 4
  %10 = icmp ne i32 %8, 0
  tail call void @llvm.assume(i1 %10)
  %11 = and i32 %8, %3
  store i32 %11, ptr %6, align 4
  %12 = icmp eq i32 %11, 0
  %13 = icmp eq i32 %11, %8
  %14 = select i1 %4, ptr @indirect_reg_alloc_order, ptr @tcg_target_reg_alloc_order
  %15 = getelementptr inbounds nuw i8, ptr %0, i64 29400
  %16 = or i1 %13, %12
  %umax = zext i1 %16 to i64
  br label %17

17:                                               ; preds = %5, %.thread69
  %indvars.iv98 = phi i64 [ %umax, %5 ], [ 1, %.thread69 ]
  %18 = getelementptr inbounds nuw [2 x i32], ptr %6, i64 0, i64 %indvars.iv98
  %19 = load i32, ptr %18, align 4
  %20 = tail call range(i32 0, 33) i32 @llvm.ctpop.i32(i32 %19)
  %21 = icmp samesign ult i32 %20, 2
  br i1 %21, label %32, label %.preheader80

.preheader80:                                     ; preds = %17, %31
  %indvars.iv = phi i64 [ %indvars.iv.next, %31 ], [ 0, %17 ]
  %22 = getelementptr inbounds nuw i32, ptr %14, i64 %indvars.iv
  %23 = load i32, ptr %22, align 4
  %24 = zext i32 %23 to i64
  %25 = getelementptr inbounds nuw [32 x ptr], ptr %15, i64 0, i64 %24
  %26 = load ptr, ptr %25, align 8
  %27 = icmp eq ptr %26, null
  br i1 %27, label %28, label %31

28:                                               ; preds = %.preheader80
  %29 = shl nuw i32 1, %23
  %30 = and i32 %29, %19
  %.not62 = icmp eq i32 %30, 0
  br i1 %.not62, label %31, label %.thread73

31:                                               ; preds = %.preheader80, %28
  %indvars.iv.next = add nuw nsw i64 %indvars.iv, 1
  %exitcond.not = icmp eq i64 %indvars.iv.next, 31
  br i1 %exitcond.not, label %.thread69, label %.preheader80, !llvm.loop !98

32:                                               ; preds = %17
  %33 = tail call range(i32 0, 33) i32 @llvm.cttz.i32(i32 %19, i1 false)
  %34 = zext nneg i32 %33 to i64
  %35 = getelementptr inbounds nuw [32 x ptr], ptr %15, i64 0, i64 %34
  %36 = load ptr, ptr %35, align 8
  %.not63.not = icmp eq ptr %36, null
  br i1 %.not63.not, label %.thread73, label %.thread69

.thread69:                                        ; preds = %31, %32
  %37 = icmp eq i64 %indvars.iv98, 0
  br i1 %37, label %17, label %.preheader79, !llvm.loop !99

.preheader79:                                     ; preds = %.thread69, %tcg_reg_free.exit
  %indvars.iv105 = phi i64 [ 1, %tcg_reg_free.exit ], [ %umax, %.thread69 ]
  %38 = getelementptr inbounds nuw [2 x i32], ptr %6, i64 0, i64 %indvars.iv105
  %39 = load i32, ptr %38, align 4
  %40 = tail call range(i32 0, 33) i32 @llvm.ctpop.i32(i32 %39)
  %41 = icmp samesign ult i32 %40, 2
  br i1 %41, label %42, label %tcg_reg_free.exit65

42:                                               ; preds = %.preheader79
  %43 = tail call range(i32 0, 33) i32 @llvm.cttz.i32(i32 %39, i1 false)
  %44 = zext nneg i32 %43 to i64
  %45 = getelementptr inbounds nuw [32 x ptr], ptr %15, i64 0, i64 %44
  %46 = load ptr, ptr %45, align 8
  %.not.i = icmp eq ptr %46, null
  br i1 %.not.i, label %.thread73, label %.thread73.sink.split

47:                                               ; preds = %tcg_reg_free.exit65
  %indvars.iv.next101 = add nuw nsw i64 %indvars.iv100, 1
  %exitcond103.not = icmp eq i64 %indvars.iv.next101, 31
  br i1 %exitcond103.not, label %tcg_reg_free.exit, label %tcg_reg_free.exit65, !llvm.loop !100

tcg_reg_free.exit65:                              ; preds = %.preheader79, %47
  %indvars.iv100 = phi i64 [ %indvars.iv.next101, %47 ], [ 0, %.preheader79 ]
  %48 = getelementptr inbounds nuw i32, ptr %14, i64 %indvars.iv100
  %49 = load i32, ptr %48, align 4
  %50 = shl nuw i32 1, %49
  %51 = and i32 %50, %39
  %.not = icmp eq i32 %51, 0
  br i1 %.not, label %47, label %52

52:                                               ; preds = %tcg_reg_free.exit65
  %53 = zext i32 %49 to i64
  %54 = getelementptr inbounds nuw [32 x ptr], ptr %15, i64 0, i64 %53
  %55 = load ptr, ptr %54, align 8
  %.not.i64 = icmp eq ptr %55, null
  br i1 %.not.i64, label %.thread73, label %.thread73.sink.split

tcg_reg_free.exit:                                ; preds = %47
  %56 = icmp eq i64 %indvars.iv105, 0
  br i1 %56, label %.preheader79, label %57, !llvm.loop !101

57:                                               ; preds = %tcg_reg_free.exit
  tail call void @g_assertion_message_expr(ptr noundef null, ptr noundef nonnull @.str.4, i32 noundef 4604, ptr noundef nonnull @__func__.tcg_reg_alloc, ptr noundef null) #31
  unreachable

.thread73.sink.split:                             ; preds = %52, %42
  %.sink = phi ptr [ %46, %42 ], [ %55, %52 ]
  %.6.ph = phi i32 [ %43, %42 ], [ %49, %52 ]
  tail call fastcc void @temp_sync(ptr noundef nonnull %0, ptr noundef nonnull %.sink, i32 noundef %2, i32 noundef 0, i32 noundef -1)
  br label %.thread73

.thread73:                                        ; preds = %32, %28, %.thread73.sink.split, %52, %42
  %.6 = phi i32 [ %43, %42 ], [ %49, %52 ], [ %.6.ph, %.thread73.sink.split ], [ %23, %28 ], [ %33, %32 ]
  call void @llvm.lifetime.end.p0(i64 8, ptr nonnull %6) #30
  ret i32 %.6
}